(dp1
S'1857cd7ce28c5d124cfc3cd05559d34f'
p2
(lp3
I0
aS'2bdec9c09b77f8c376e96de0c6c8f881'
p4
aS'unlock'
p5
asS'203b6447d340ac620c59db55716b9870'
p6
(lp7
I0
aS'ac4582e37b893d2739a7d8c75aebe895'
p8
aS'unlock'
p9
as.